; Function Attrs: mustprogress nounwind uwtable
define void @_ZN6google8protobuf43FeatureSetDefaults_FeatureSetEditionDefaultD2Ev(ptr noundef nonnull align 8 dereferenceable(40) %this) unnamed_addr #6 align 2 personality ptr @__gxx_personality_v0 {
entry:
  %_internal_metadata_ = getelementptr inbounds i8, ptr %this, i64 8
  %0 = load i64, ptr %_internal_metadata_, align 8
  %and.i.i = and i64 %0, 1
  %tobool.i.not.i = icmp eq i64 %and.i.i, 0
  br i1 %tobool.i.not.i, label %invoke.cont, label %if.then.i

if.then.i:                                        ; preds = %entry
  invoke void @_ZN6google8protobuf8internal16InternalMetadata21DeleteOutOfLineHelperINS0_15UnknownFieldSetEEEvv(ptr noundef nonnull align 8 dereferenceable(8) %_internal_metadata_)
          to label %invoke.cont unwind label %terminate.lpad

invoke.cont:                                      ; preds = %entry, %if.then.i
  %features_.i = getelementptr inbounds i8, ptr %this, i64 24
  %1 = load ptr, ptr %features_.i, align 8
  %isnull.i = icmp eq ptr %1, null
  br i1 %isnull.i, label %_ZN6google8protobuf43FeatureSetDefaults_FeatureSetEditionDefault10SharedDtorEv.exit, label %delete.notnull.i

delete.notnull.i:                                 ; preds = %invoke.cont
  tail call void @_ZN6google8protobuf10FeatureSetD1Ev(ptr noundef nonnull align 8 dereferenceable(72) %1) #22
  tail call void @_ZdlPv(ptr noundef nonnull %1) #23
  br label %_ZN6google8protobuf43FeatureSetDefaults_FeatureSetEditionDefault10SharedDtorEv.exit

_ZN6google8protobuf43FeatureSetDefaults_FeatureSetEditionDefault10SharedDtorEv.exit: ; preds = %invoke.cont, %delete.notnull.i
  ret void

terminate.lpad:                                   ; preds = %if.then.i
  %2 = landingpad { ptr, i32 }
          catch ptr null
  %3 = extractvalue { ptr, i32 } %2, 0
  tail call void @__clang_call_terminate(ptr %3) #21
  unreachable
}